; Function Attrs: mustprogress nofree norecurse nosync nounwind willreturn memory(write, inaccessiblemem: none) uwtable
define dso_local void @_ZN30btGeneric6DofSpring2Constraint16setMaxMotorForceEif(ptr nocapture noundef nonnull writeonly align 8 dereferenceable(1484) %this, i32 noundef %index, float noundef %force) local_unnamed_addr #15 align 2 {
entry:
  %cmp = icmp slt i32 %index, 3
  %m_angularLimits = getelementptr inbounds i8, ptr %this, i64 992
  %sub = add nsw i32 %index, -3
  %idxprom2 = zext nneg i32 %sub to i64
  %m_maxMotorForce4 = getelementptr inbounds [3 x %class.btRotationalLimitMotor2], ptr %m_angularLimits, i64 0, i64 %idxprom2, i32 9
  %m_maxMotorForce = getelementptr inbounds i8, ptr %this, i64 916
  %idxprom = sext i32 %index to i64
  %arrayidx = getelementptr inbounds float, ptr %m_maxMotorForce, i64 %idxprom
  %m_maxMotorForce4.sink = select i1 %cmp, ptr %arrayidx, ptr %m_maxMotorForce4
  store float %force, ptr %m_maxMotorForce4.sink, align 4
  ret void
}